target datalayout = "e-m:e-p270:32:32-p271:32:32-p272:64:64-i64:64-i128:128-f80:128-n8:16:32:64-S128"
target triple = "x86_64-pc-linux-gnu"

@base64 = internal constant [64 x i8] c"ABCDEFGHIJKLMNOPQRSTUVWXYZabcdefghijklmnopqrstuvwxyz0123456789+/", align 16

; Function Attrs: nounwind uwtable
define internal void @la_b64_encode(ptr noundef %0, ptr noundef %1, i64 noundef %2) #0 {
  %4 = alloca ptr, align 8
  %5 = alloca ptr, align 8
  %6 = alloca i64, align 8
  %7 = alloca i32, align 4
  store ptr %0, ptr %4, align 8, !tbaa !52
  store ptr %1, ptr %5, align 8, !tbaa !40
  store i64 %2, ptr %6, align 8, !tbaa !33
  call void @llvm.lifetime.start.p0(i64 4, ptr %7) #7
  br label %8

8:                                                ; preds = %72, %3
  %9 = load i64, ptr %6, align 8, !tbaa !33
  %10 = icmp uge i64 %9, 3
  br i1 %10, label %11, label %77

11:                                               ; preds = %8
  %12 = load ptr, ptr %5, align 8, !tbaa !40
  %13 = getelementptr inbounds i8, ptr %12, i64 0
  %14 = load i8, ptr %13, align 1, !tbaa !43
  %15 = zext i8 %14 to i32
  %16 = ashr i32 %15, 2
  store i32 %16, ptr %7, align 4, !tbaa !13
  %17 = load ptr, ptr %4, align 8, !tbaa !52
  %18 = load i32, ptr %7, align 4, !tbaa !13
  %19 = sext i32 %18 to i64
  %20 = getelementptr inbounds [64 x i8], ptr @base64, i64 0, i64 %19
  %21 = load i8, ptr %20, align 1, !tbaa !43
  %22 = call ptr @archive_strappend_char(ptr noundef %17, i8 noundef signext %21)
  %23 = load ptr, ptr %5, align 8, !tbaa !40
  %24 = getelementptr inbounds i8, ptr %23, i64 0
  %25 = load i8, ptr %24, align 1, !tbaa !43
  %26 = zext i8 %25 to i32
  %27 = and i32 %26, 3
  %28 = shl i32 %27, 4
  %29 = load ptr, ptr %5, align 8, !tbaa !40
  %30 = getelementptr inbounds i8, ptr %29, i64 1
  %31 = load i8, ptr %30, align 1, !tbaa !43
  %32 = zext i8 %31 to i32
  %33 = and i32 %32, 240
  %34 = ashr i32 %33, 4
  %35 = or i32 %28, %34
  store i32 %35, ptr %7, align 4, !tbaa !13
  %36 = load ptr, ptr %4, align 8, !tbaa !52
  %37 = load i32, ptr %7, align 4, !tbaa !13
  %38 = sext i32 %37 to i64
  %39 = getelementptr inbounds [64 x i8], ptr @base64, i64 0, i64 %38
  %40 = load i8, ptr %39, align 1, !tbaa !43
  %41 = call ptr @archive_strappend_char(ptr noundef %36, i8 noundef signext %40)
  %42 = load ptr, ptr %5, align 8, !tbaa !40
  %43 = getelementptr inbounds i8, ptr %42, i64 1
  %44 = load i8, ptr %43, align 1, !tbaa !43
  %45 = zext i8 %44 to i32
  %46 = and i32 %45, 15
  %47 = shl i32 %46, 2
  %48 = load ptr, ptr %5, align 8, !tbaa !40
  %49 = getelementptr inbounds i8, ptr %48, i64 2
  %50 = load i8, ptr %49, align 1, !tbaa !43
  %51 = zext i8 %50 to i32
  %52 = and i32 %51, 192
  %53 = ashr i32 %52, 6
  %54 = or i32 %47, %53
  store i32 %54, ptr %7, align 4, !tbaa !13
  %55 = load ptr, ptr %4, align 8, !tbaa !52
  %56 = load i32, ptr %7, align 4, !tbaa !13
  %57 = sext i32 %56 to i64
  %58 = getelementptr inbounds [64 x i8], ptr @base64, i64 0, i64 %57
  %59 = load i8, ptr %58, align 1, !tbaa !43
  %60 = call ptr @archive_strappend_char(ptr noundef %55, i8 noundef signext %59)
  %61 = load ptr, ptr %5, align 8, !tbaa !40
  %62 = getelementptr inbounds i8, ptr %61, i64 2
  %63 = load i8, ptr %62, align 1, !tbaa !43
  %64 = zext i8 %63 to i32
  %65 = and i32 %64, 63
  store i32 %65, ptr %7, align 4, !tbaa !13
  %66 = load ptr, ptr %4, align 8, !tbaa !52
  %67 = load i32, ptr %7, align 4, !tbaa !13
  %68 = sext i32 %67 to i64
  %69 = getelementptr inbounds [64 x i8], ptr @base64, i64 0, i64 %68
  %70 = load i8, ptr %69, align 1, !tbaa !43
  %71 = call ptr @archive_strappend_char(ptr noundef %66, i8 noundef signext %70)
  br label %72

72:                                               ; preds = %11
  %73 = load ptr, ptr %5, align 8, !tbaa !40
  %74 = getelementptr inbounds i8, ptr %73, i64 3
  store ptr %74, ptr %5, align 8, !tbaa !40
  %75 = load i64, ptr %6, align 8, !tbaa !33
  %76 = sub i64 %75, 3
  store i64 %76, ptr %6, align 8, !tbaa !33
  br label %8, !llvm.loop !54

77:                                               ; preds = %8
  %78 = load i64, ptr %6, align 8, !tbaa !33
  %79 = icmp ugt i64 %78, 0
  br i1 %79, label %80, label %141

80:                                               ; preds = %77
  %81 = load ptr, ptr %5, align 8, !tbaa !40
  %82 = getelementptr inbounds i8, ptr %81, i64 0
  %83 = load i8, ptr %82, align 1, !tbaa !43
  %84 = zext i8 %83 to i32
  %85 = ashr i32 %84, 2
  store i32 %85, ptr %7, align 4, !tbaa !13
  %86 = load ptr, ptr %4, align 8, !tbaa !52
  %87 = load i32, ptr %7, align 4, !tbaa !13
  %88 = sext i32 %87 to i64
  %89 = getelementptr inbounds [64 x i8], ptr @base64, i64 0, i64 %88
  %90 = load i8, ptr %89, align 1, !tbaa !43
  %91 = call ptr @archive_strappend_char(ptr noundef %86, i8 noundef signext %90)
  %92 = load ptr, ptr %5, align 8, !tbaa !40
  %93 = getelementptr inbounds i8, ptr %92, i64 0
  %94 = load i8, ptr %93, align 1, !tbaa !43
  %95 = zext i8 %94 to i32
  %96 = and i32 %95, 3
  %97 = shl i32 %96, 4
  store i32 %97, ptr %7, align 4, !tbaa !13
  %98 = load i64, ptr %6, align 8, !tbaa !33
  %99 = icmp eq i64 %98, 1
  br i1 %99, label %100, label %111

100:                                              ; preds = %80
  %101 = load ptr, ptr %4, align 8, !tbaa !52
  %102 = load i32, ptr %7, align 4, !tbaa !13
  %103 = sext i32 %102 to i64
  %104 = getelementptr inbounds [64 x i8], ptr @base64, i64 0, i64 %103
  %105 = load i8, ptr %104, align 1, !tbaa !43
  %106 = call ptr @archive_strappend_char(ptr noundef %101, i8 noundef signext %105)
  %107 = load ptr, ptr %4, align 8, !tbaa !52
  %108 = call ptr @archive_strappend_char(ptr noundef %107, i8 noundef signext 61)
  %109 = load ptr, ptr %4, align 8, !tbaa !52
  %110 = call ptr @archive_strappend_char(ptr noundef %109, i8 noundef signext 61)
  br label %140

111:                                              ; preds = %80
  %112 = load ptr, ptr %5, align 8, !tbaa !40
  %113 = getelementptr inbounds i8, ptr %112, i64 1
  %114 = load i8, ptr %113, align 1, !tbaa !43
  %115 = zext i8 %114 to i32
  %116 = and i32 %115, 240
  %117 = ashr i32 %116, 4
  %118 = load i32, ptr %7, align 4, !tbaa !13
  %119 = or i32 %118, %117
  store i32 %119, ptr %7, align 4, !tbaa !13
  %120 = load ptr, ptr %4, align 8, !tbaa !52
  %121 = load i32, ptr %7, align 4, !tbaa !13
  %122 = sext i32 %121 to i64
  %123 = getelementptr inbounds [64 x i8], ptr @base64, i64 0, i64 %122
  %124 = load i8, ptr %123, align 1, !tbaa !43
  %125 = call ptr @archive_strappend_char(ptr noundef %120, i8 noundef signext %124)
  %126 = load ptr, ptr %5, align 8, !tbaa !40
  %127 = getelementptr inbounds i8, ptr %126, i64 1
  %128 = load i8, ptr %127, align 1, !tbaa !43
  %129 = zext i8 %128 to i32
  %130 = and i32 %129, 15
  %131 = shl i32 %130, 2
  store i32 %131, ptr %7, align 4, !tbaa !13
  %132 = load ptr, ptr %4, align 8, !tbaa !52
  %133 = load i32, ptr %7, align 4, !tbaa !13
  %134 = sext i32 %133 to i64
  %135 = getelementptr inbounds [64 x i8], ptr @base64, i64 0, i64 %134
  %136 = load i8, ptr %135, align 1, !tbaa !43
  %137 = call ptr @archive_strappend_char(ptr noundef %132, i8 noundef signext %136)
  %138 = load ptr, ptr %4, align 8, !tbaa !52
  %139 = call ptr @archive_strappend_char(ptr noundef %138, i8 noundef signext 61)
  br label %140

140:                                              ; preds = %111, %100
  br label %141

141:                                              ; preds = %140, %77
  %142 = load ptr, ptr %4, align 8, !tbaa !52
  %143 = call ptr @archive_strappend_char(ptr noundef %142, i8 noundef signext 10)
  call void @llvm.lifetime.end.p0(i64 4, ptr %7) #7
  ret void
}