; Function Attrs: nounwind uwtable
define internal fastcc void @la_b64_encode(ptr noundef %0, ptr noundef readonly captures(none) %1, i64 noundef range(i64 1, 0) %2) unnamed_addr #0 {
  %4 = icmp ugt i64 %2, 2
  br i1 %4, label %.lr.ph, label %._crit_edge.thread

.lr.ph:                                           ; preds = %3, %.lr.ph
  %.037 = phi i64 [ %40, %.lr.ph ], [ %2, %3 ]
  %.03536 = phi ptr [ %39, %.lr.ph ], [ %1, %3 ]
  %5 = load i8, ptr %.03536, align 1, !tbaa !31
  %6 = lshr i8 %5, 2
  %7 = zext nneg i8 %6 to i64
  %8 = getelementptr inbounds nuw [64 x i8], ptr @base64, i64 0, i64 %7
  %9 = load i8, ptr %8, align 1, !tbaa !31
  %10 = tail call ptr @archive_strappend_char(ptr noundef %0, i8 noundef signext %9) #6
  %11 = load i8, ptr %.03536, align 1, !tbaa !31
  %12 = shl i8 %11, 4
  %13 = and i8 %12, 48
  %14 = getelementptr inbounds nuw i8, ptr %.03536, i64 1
  %15 = load i8, ptr %14, align 1, !tbaa !31
  %16 = lshr i8 %15, 4
  %17 = or disjoint i8 %13, %16
  %18 = zext nneg i8 %17 to i64
  %19 = getelementptr inbounds nuw [64 x i8], ptr @base64, i64 0, i64 %18
  %20 = load i8, ptr %19, align 1, !tbaa !31
  %21 = tail call ptr @archive_strappend_char(ptr noundef %0, i8 noundef signext %20) #6
  %22 = load i8, ptr %14, align 1, !tbaa !31
  %23 = shl i8 %22, 2
  %24 = and i8 %23, 60
  %25 = getelementptr inbounds nuw i8, ptr %.03536, i64 2
  %26 = load i8, ptr %25, align 1, !tbaa !31
  %27 = lshr i8 %26, 6
  %28 = or disjoint i8 %24, %27
  %29 = zext nneg i8 %28 to i64
  %30 = getelementptr inbounds nuw [64 x i8], ptr @base64, i64 0, i64 %29
  %31 = load i8, ptr %30, align 1, !tbaa !31
  %32 = tail call ptr @archive_strappend_char(ptr noundef %0, i8 noundef signext %31) #6
  %33 = load i8, ptr %25, align 1, !tbaa !31
  %34 = and i8 %33, 63
  %35 = zext nneg i8 %34 to i64
  %36 = getelementptr inbounds nuw [64 x i8], ptr @base64, i64 0, i64 %35
  %37 = load i8, ptr %36, align 1, !tbaa !31
  %38 = tail call ptr @archive_strappend_char(ptr noundef %0, i8 noundef signext %37) #6
  %39 = getelementptr inbounds nuw i8, ptr %.03536, i64 3
  %40 = add i64 %.037, -3
  %41 = icmp ugt i64 %40, 2
  br i1 %41, label %.lr.ph, label %._crit_edge, !llvm.loop !42

._crit_edge:                                      ; preds = %.lr.ph
  %.not = icmp eq i64 %40, 0
  br i1 %.not, label %74, label %._crit_edge.thread

._crit_edge.thread:                               ; preds = %3, %._crit_edge
  %.0.lcssa44 = phi i64 [ %40, %._crit_edge ], [ %2, %3 ]
  %.035.lcssa43 = phi ptr [ %39, %._crit_edge ], [ %1, %3 ]
  %42 = load i8, ptr %.035.lcssa43, align 1, !tbaa !31
  %43 = lshr i8 %42, 2
  %44 = zext nneg i8 %43 to i64
  %45 = getelementptr inbounds nuw [64 x i8], ptr @base64, i64 0, i64 %44
  %46 = load i8, ptr %45, align 1, !tbaa !31
  %47 = tail call ptr @archive_strappend_char(ptr noundef %0, i8 noundef signext %46) #6
  %48 = load i8, ptr %.035.lcssa43, align 1, !tbaa !31
  %49 = shl i8 %48, 4
  %50 = and i8 %49, 48
  %51 = icmp eq i64 %.0.lcssa44, 1
  br i1 %51, label %52, label %57

52:                                               ; preds = %._crit_edge.thread
  %53 = zext nneg i8 %50 to i64
  %54 = getelementptr inbounds nuw [64 x i8], ptr @base64, i64 0, i64 %53
  %55 = load i8, ptr %54, align 16, !tbaa !31
  %56 = tail call ptr @archive_strappend_char(ptr noundef %0, i8 noundef signext %55) #6
  br label %.sink.split

57:                                               ; preds = %._crit_edge.thread
  %58 = getelementptr inbounds nuw i8, ptr %.035.lcssa43, i64 1
  %59 = load i8, ptr %58, align 1, !tbaa !31
  %60 = lshr i8 %59, 4
  %61 = or disjoint i8 %60, %50
  %62 = zext nneg i8 %61 to i64
  %63 = getelementptr inbounds nuw [64 x i8], ptr @base64, i64 0, i64 %62
  %64 = load i8, ptr %63, align 1, !tbaa !31
  %65 = tail call ptr @archive_strappend_char(ptr noundef %0, i8 noundef signext %64) #6
  %66 = load i8, ptr %58, align 1, !tbaa !31
  %67 = shl i8 %66, 2
  %68 = and i8 %67, 60
  %69 = zext nneg i8 %68 to i64
  %70 = getelementptr inbounds nuw [64 x i8], ptr @base64, i64 0, i64 %69
  %71 = load i8, ptr %70, align 4, !tbaa !31
  br label %.sink.split

.sink.split:                                      ; preds = %57, %52
  %.sink = phi i8 [ 61, %52 ], [ %71, %57 ]
  %72 = tail call ptr @archive_strappend_char(ptr noundef %0, i8 noundef signext %.sink) #6
  %73 = tail call ptr @archive_strappend_char(ptr noundef %0, i8 noundef signext 61) #6
  br label %74

74:                                               ; preds = %.sink.split, %._crit_edge
  %75 = tail call ptr @archive_strappend_char(ptr noundef %0, i8 noundef signext 10) #6
  ret void
}